; Function Attrs: mustprogress uwtable
define noundef ptr @uregex_clone_75(ptr noundef readonly %source2, ptr noundef %status) local_unnamed_addr #5 personality ptr @__gxx_personality_v0 {
entry:
  %0 = load i32, ptr %status, align 4
  %cmp.i.i = icmp slt i32 %0, 1
  br i1 %cmp.i.i, label %if.end.i, label %return

if.end.i:                                         ; preds = %entry
  %cmp.i = icmp eq ptr %source2, null
  br i1 %cmp.i, label %return.sink.split.i, label %lor.lhs.false.i

lor.lhs.false.i:                                  ; preds = %if.end.i
  %1 = load i32, ptr %source2, align 8
  %cmp1.not.i = icmp eq i32 %1, 1919252592
  br i1 %cmp1.not.i, label %if.end, label %return.sink.split.i

return.sink.split.i:                              ; preds = %lor.lhs.false.i, %if.end.i
  store i32 1, ptr %status, align 4
  br label %return

if.end:                                           ; preds = %lor.lhs.false.i
  %call1 = tail call noundef ptr @_ZN6icu_757UMemorynwEm(i64 noundef 64) #10
  %new.isnull = icmp eq ptr %call1, null
  br i1 %new.isnull, label %if.then3, label %new.notnull

new.notnull:                                      ; preds = %if.end
  invoke void @_ZN6icu_7517RegularExpressionC1Ev(ptr noundef nonnull align 8 dereferenceable(61) %call1)
          to label %if.end4 unwind label %lpad

if.then3:                                         ; preds = %if.end
  store i32 7, ptr %status, align 4
  br label %return

lpad:                                             ; preds = %new.notnull
  %2 = landingpad { ptr, i32 }
          cleanup
  tail call void @_ZN6icu_757UMemorydlEPv(ptr noundef nonnull %call1) #10
  resume { ptr, i32 } %2

if.end4:                                          ; preds = %new.notnull
  %fPat = getelementptr inbounds i8, ptr %source2, i64 8
  %3 = load ptr, ptr %fPat, align 8
  %call5 = tail call noundef ptr @_ZNK6icu_7512RegexPattern7matcherER10UErrorCode(ptr noundef nonnull align 8 dereferenceable(200) %3, ptr noundef nonnull align 4 dereferenceable(4) %status)
  %fMatcher = getelementptr inbounds i8, ptr %call1, i64 40
  store ptr %call5, ptr %fMatcher, align 8
  %4 = load i32, ptr %status, align 4
  %cmp.i17 = icmp slt i32 %4, 1
  br i1 %cmp.i17, label %if.end8, label %delete.notnull

delete.notnull:                                   ; preds = %if.end4
  tail call void @_ZN6icu_7517RegularExpressionD1Ev(ptr noundef nonnull align 8 dereferenceable(61) %call1) #10
  tail call void @_ZN6icu_757UMemorydlEPv(ptr noundef nonnull %call1) #10
  br label %return

if.end8:                                          ; preds = %if.end4
  %5 = load ptr, ptr %fPat, align 8
  %fPat10 = getelementptr inbounds i8, ptr %call1, i64 8
  store ptr %5, ptr %fPat10, align 8
  %fPatRefCount = getelementptr inbounds i8, ptr %source2, i64 16
  %6 = load ptr, ptr %fPatRefCount, align 8
  %fPatRefCount11 = getelementptr inbounds i8, ptr %call1, i64 16
  store ptr %6, ptr %fPatRefCount11, align 8
  %fPatString = getelementptr inbounds i8, ptr %source2, i64 24
  %7 = load ptr, ptr %fPatString, align 8
  %fPatString12 = getelementptr inbounds i8, ptr %call1, i64 24
  store ptr %7, ptr %fPatString12, align 8
  %fPatStringLen = getelementptr inbounds i8, ptr %source2, i64 32
  %8 = load i32, ptr %fPatStringLen, align 8
  %fPatStringLen13 = getelementptr inbounds i8, ptr %call1, i64 32
  store i32 %8, ptr %fPatStringLen13, align 8
  %9 = load ptr, ptr %fPatRefCount, align 8
  %10 = atomicrmw add ptr %9, i32 1 seq_cst, align 4
  br label %return

return:                                           ; preds = %return.sink.split.i, %entry, %if.end8, %delete.notnull, %if.then3
  %retval.0 = phi ptr [ null, %if.then3 ], [ null, %delete.notnull ], [ %call1, %if.end8 ], [ null, %entry ], [ null, %return.sink.split.i ]
  ret ptr %retval.0
}